((lp0
(lp1
S'2'
p2
ag2
ag2
ag2
ag2
ag2
ag2
ag2
ag2
ag2
ag2
ag2
ag2
ag2
ag2
ag2
ag2
ag2
ag2
ag2
ag2
ag2
ag2
ag2
ag2
ag2
ag2
ag2
ag2
ag2
ag2
ag2
ag2
ag2
ag2
aa(lp3
g2
ag2
ag2
ag2
ag2
ag2
ag2
ag2
ag2
ag2
ag2
ag2
ag2
ag2
ag2
ag2
ag2
ag2
ag2
ag2
ag2
ag2
ag2
ag2
ag2
ag2
ag2
ag2
ag2
ag2
ag2
ag2
ag2
ag2
ag2
aa(lp4
g2
ag2
ag2
ag2
ag2
ag2
ag2
ag2
ag2
ag2
ag2
ag2
ag2
ag2
ag2
ag2
ag2
ag2
ag2
ag2
ag2
ag2
ag2
ag2
ag2
ag2
ag2
ag2
ag2
ag2
ag2
ag2
ag2
ag2
ag2
aa(lp5
g2
ag2
ag2
ag2
ag2
ag2
ag2
ag2
ag2
ag2
ag2
ag2
ag2
ag2
ag2
ag2
ag2
ag2
ag2
ag2
ag2
ag2
ag2
ag2
ag2
ag2
ag2
ag2
ag2
ag2
ag2
ag2
ag2
ag2
ag2
aa(lp6
S'1'
p7
ag7
ag7
ag7
ag7
ag7
ag7
ag7
ag7
ag7
ag7
ag7
ag7
ag7
ag7
ag7
ag7
ag7
ag7
ag7
ag7
ag7
ag7
ag7
ag7
ag7
ag7
ag7
ag7
ag7
ag7
ag7
ag7
ag7
ag7
aa(lp8
g7
aS'0'
p9
ag9
ag9
ag9
ag9
ag9
ag9
ag9
ag9
ag9
ag9
ag9
ag9
ag9
ag9
ag9
ag9
ag9
ag9
ag9
ag9
ag9
ag9
ag9
ag9
ag9
ag9
ag9
ag9
ag9
ag9
ag9
ag9
ag7
aa(lp10
g7
ag9
ag9
ag9
ag9
ag9
ag9
ag9
ag9
ag9
ag9
ag9
ag9
ag9
ag9
ag9
aS'0'
p11
ag9
ag9
ag9
ag9
ag9
ag9
ag9
ag9
ag9
ag9
ag9
ag9
ag9
ag9
ag9
ag9
ag9
ag7
aa(lp12
g7
ag9
ag9
ag9
ag9
ag9
ag9
ag9
aS'1'
p13
ag9
ag9
ag9
ag9
ag9
ag9
ag9
ag11
ag11
ag9
ag9
ag9
ag9
ag9
ag9
ag9
ag9
ag9
ag9
ag9
ag9
ag9
ag9
ag9
ag9
ag7
aa(lp14
g7
ag9
ag9
ag9
ag9
ag9
ag9
ag13
ag13
ag9
ag9
ag9
ag9
ag9
ag9
ag9
ag11
ag11
ag9
ag9
ag13
ag13
ag13
ag13
ag13
ag13
ag13
ag13
ag13
ag13
ag13
ag13
ag9
ag9
ag7
aa(lp15
g7
ag9
ag9
ag9
ag9
ag9
ag13
ag13
ag9
ag9
ag9
ag9
ag9
ag9
ag9
ag9
ag11
ag11
ag9
ag9
ag13
ag11
ag9
ag9
ag9
ag9
ag9
ag9
ag9
ag9
ag9
ag9
ag9
ag9
ag7
aa(lp16
g7
ag9
ag9
ag9
ag9
ag13
ag13
ag9
ag9
ag9
ag9
ag9
ag9
ag9
ag9
ag9
ag11
ag11
ag9
ag9
ag13
ag11
ag9
ag9
ag9
ag9
ag9
ag9
ag9
ag9
ag9
ag9
ag9
ag9
ag7
aa(lp17
g7
ag9
ag9
ag9
ag13
ag13
ag9
ag9
ag9
ag9
ag9
ag9
ag9
ag9
ag9
ag9
ag11
ag11
ag9
ag9
ag13
ag9
ag9
ag9
ag9
ag9
ag9
ag9
ag9
ag9
ag9
ag9
ag9
ag9
ag7
aa(lp18
g7
ag9
ag9
ag13
ag13
ag11
ag11
ag11
ag11
ag9
ag9
ag9
ag9
ag9
ag9
ag11
ag11
ag11
ag9
ag9
ag13
ag9
ag9
ag9
ag11
ag11
ag11
ag11
ag11
ag9
ag9
ag9
ag9
ag9
ag7
aa(lp19
g7
ag9
ag11
ag11
ag11
ag11
ag9
ag9
ag11
ag9
ag9
ag9
ag9
ag9
ag9
ag11
ag11
ag11
ag11
ag11
ag13
ag9
ag9
ag9
ag11
ag9
ag9
ag9
ag9
ag11
ag11
ag11
ag11
ag9
ag7
aa(lp20
g7
ag9
ag9
ag11
ag11
ag11
ag11
ag9
ag11
ag9
ag9
ag9
ag9
ag9
ag11
ag13
ag11
ag11
ag9
ag11
ag13
ag9
ag9
ag9
ag11
ag9
ag9
ag9
ag11
ag11
ag11
ag9
ag9
ag9
ag7
aa(lp21
g7
ag9
ag9
ag9
ag9
ag11
ag11
ag9
ag11
ag9
ag9
ag9
ag9
ag9
ag11
ag13
ag11
ag11
ag9
ag11
ag9
ag9
ag9
ag9
ag11
ag9
ag11
ag11
ag11
ag11
ag9
ag9
ag9
ag9
ag7
aa(lp22
g7
ag9
ag9
ag9
ag9
ag11
ag11
ag9
ag11
ag11
ag11
ag11
ag11
ag11
ag11
ag13
ag11
ag11
ag11
ag11
ag11
ag11
ag11
ag11
ag11
ag11
ag11
ag9
ag9
ag11
ag9
ag9
ag9
ag9
ag7
aa(lp23
g7
ag9
ag9
ag9
ag11
ag11
ag11
ag11
ag11
ag9
ag9
ag9
ag9
ag9
ag9
ag13
ag11
ag11
ag9
ag11
ag9
ag9
ag9
ag9
ag11
ag11
ag9
ag9
ag9
ag11
ag9
ag9
ag9
ag9
ag7
aa(lp24
g7
ag9
ag9
ag9
ag11
ag11
ag11
ag9
ag11
ag9
ag9
ag9
ag9
ag9
ag9
ag13
ag11
ag11
ag11
ag11
ag9
ag9
ag9
ag9
ag11
ag11
ag9
ag9
ag9
ag11
ag11
ag11
ag9
ag9
ag7
aa(lp25
g7
ag9
ag11
ag11
ag11
ag11
ag11
ag9
ag11
ag9
ag9
ag9
ag9
ag9
ag9
ag13
ag11
ag11
ag11
ag9
ag9
ag9
ag9
ag9
ag11
ag9
ag9
ag9
ag9
ag11
ag11
ag11
ag9
ag9
ag7
aa(lp26
g7
ag9
ag9
ag9
ag11
ag11
ag9
ag9
ag11
ag9
ag9
ag9
ag9
ag9
ag9
ag13
ag11
ag11
ag11
ag9
ag9
ag9
ag9
ag9
ag11
ag11
ag9
ag11
ag11
ag9
ag9
ag9
ag9
ag9
ag7
aa(lp27
g7
ag9
ag9
ag9
ag9
ag13
ag13
ag13
ag13
ag13
ag13
ag13
ag13
ag13
ag13
ag13
ag11
ag11
ag9
ag9
ag9
ag9
ag9
ag11
ag11
ag11
ag11
ag11
ag11
ag9
ag13
ag13
ag9
ag9
ag7
aa(lp28
g7
ag9
ag9
ag9
ag9
ag9
ag9
ag11
ag11
ag9
ag9
ag9
ag9
ag9
ag9
ag9
ag11
ag11
ag11
ag9
ag9
ag9
ag9
ag9
ag9
ag9
ag9
ag9
ag9
ag13
ag13
ag9
ag9
ag9
ag7
aa(lp29
g7
ag9
ag9
ag9
ag9
ag9
ag9
ag9
ag9
ag9
ag9
ag9
ag9
ag9
ag9
ag9
ag11
ag11
ag11
ag9
ag9
ag9
ag9
ag9
ag9
ag9
ag9
ag9
ag13
ag13
ag9
ag9
ag9
ag9
ag7
aa(lp30
g7
ag9
ag9
ag9
ag9
ag9
ag9
ag9
ag9
ag9
ag9
ag9
ag9
ag9
ag9
ag9
ag11
ag11
ag9
ag9
ag9
ag9
ag9
ag9
ag9
ag9
ag9
ag13
ag13
ag9
ag9
ag9
ag9
ag9
ag7
aa(lp31
g7
ag9
ag9
ag9
ag9
ag9
ag9
ag9
ag9
ag9
ag9
ag9
ag9
ag9
ag9
ag9
ag11
ag11
ag9
ag9
ag9
ag9
ag9
ag9
ag9
ag9
ag13
ag13
ag11
ag9
ag9
ag9
ag9
ag9
ag7
aa(lp32
g7
ag9
ag9
ag9
ag9
ag9
ag9
ag9
ag9
ag9
ag9
ag9
ag9
ag9
ag9
ag9
ag9
ag11
ag9
ag9
ag9
ag9
ag9
ag9
ag9
ag9
ag13
ag11
ag9
ag9
ag9
ag9
ag9
ag9
ag7
aa(lp33
g7
ag9
ag9
ag9
ag9
ag9
ag9
ag9
ag9
ag9
ag9
ag9
ag9
ag9
ag9
ag9
ag9
ag11
ag9
ag9
ag9
ag9
ag9
ag9
ag9
ag9
ag9
ag9
ag9
ag9
ag9
ag9
ag9
ag9
ag7
aa(lp34
g7
ag9
ag9
ag9
ag9
ag9
ag9
ag9
ag9
ag9
ag9
ag9
ag9
ag9
ag9
ag9
ag9
ag9
ag9
ag9
ag9
ag9
ag9
ag9
ag9
ag9
ag9
ag9
ag9
ag9
ag9
ag9
ag9
ag9
ag7
aa(lp35
g7
ag7
ag7
ag7
ag7
ag7
ag7
ag7
ag7
ag7
ag7
ag7
ag7
ag7
ag7
ag7
ag7
ag7
ag7
ag7
ag7
ag7
ag7
ag7
ag7
ag7
ag7
ag7
ag7
ag7
ag7
ag7
ag7
ag7
ag7
aaI0
tp36
.(F73.93200000000029
F149.27000000000135
F-5.497787143782139
I-14
tp0
.(F631.2919999999995
F527.5380000000008
F495.0
F8.639379797371932
tp0
.